target datalayout = "e-m:e-p270:32:32-p271:32:32-p272:64:64-i64:64-i128:128-f80:128-n8:16:32:64-S128"
target triple = "x86_64-pc-linux-gnu"

%struct.AVRational = type { i32, i32 }
%struct.AVCodecContext = type { ptr, i32, i32, ptr, i32, i32, ptr, ptr, ptr, i64, i32, i32, ptr, i32, %struct.AVRational, %struct.AVRational, %struct.AVRational, i32, i32, i32, i32, i32, %struct.AVRational, i32, i32, i32, i32, i32, i32, i32, i32, i32, i32, i32, ptr, ptr, i32, float, float, float, float, float, float, float, float, float, i32, i32, i32, i32, i32, i32, i32, i32, i32, i32, i32, i32, ptr, ptr, ptr, i32, i32, i32, i32, i32, i32, i32, i32, i32, i32, %struct.AVChannelLayout, i32, i32, i32, i32, i32, i32, i32, i32, ptr, i32, i32, i32, float, float, i32, i32, i32, i32, i32, ptr, i64, i64, float, float, i32, i32, ptr, ptr, i32, i32, i32, i32, i32, ptr, ptr, ptr, ptr, i32, i32, [8 x i64], i32, i32, i32, i32, i32, i32, i32, ptr, ptr, i32, i32, i32, i32, i32, i32, i32, i32, i32, i32, ptr, ptr, i32, i32, ptr, ptr, ptr, ptr, i32, i32, i64, i32, i32, i64, ptr, i64, ptr, i32, ptr, i32 }
%struct.AVChannelLayout = type { i32, i32, %union.anon, ptr }
%union.anon = type { i64 }
%struct.AVCodec = type { ptr, ptr, i32, i32, i32, i8, ptr, ptr, ptr, ptr, ptr, ptr, ptr, ptr }
%struct.AVFrame = type { [8 x ptr], [8 x i32], ptr, i32, i32, i32, i32, i32, %struct.AVRational, i64, i64, %struct.AVRational, i32, ptr, i32, i32, [8 x ptr], ptr, i32, ptr, i32, i32, i32, i32, i32, i32, i32, i64, ptr, i32, ptr, ptr, i64, i64, i64, i64, ptr, %struct.AVChannelLayout, i64 }

; Function Attrs: nounwind uwtable
define internal i32 @fill_frame_props(ptr noundef %0, ptr noundef %1) #0 {
  %3 = alloca i32, align 4
  %4 = alloca ptr, align 8
  %5 = alloca ptr, align 8
  %6 = alloca i32, align 4
  %7 = alloca i32, align 4
  store ptr %0, ptr %4, align 8, !tbaa !4
  store ptr %1, ptr %5, align 8, !tbaa !51
  call void @llvm.lifetime.start.p0(i64 4, ptr %6) #11
  %8 = load ptr, ptr %5, align 8, !tbaa !51
  %9 = getelementptr inbounds nuw %struct.AVFrame, ptr %8, i32 0, i32 23
  %10 = load i32, ptr %9, align 4, !tbaa !243
  %11 = icmp eq i32 %10, 2
  br i1 %11, label %12, label %18

12:                                               ; preds = %2
  %13 = load ptr, ptr %4, align 8, !tbaa !4
  %14 = getelementptr inbounds nuw %struct.AVCodecContext, ptr %13, i32 0, i32 25
  %15 = load i32, ptr %14, align 8, !tbaa !244
  %16 = load ptr, ptr %5, align 8, !tbaa !51
  %17 = getelementptr inbounds nuw %struct.AVFrame, ptr %16, i32 0, i32 23
  store i32 %15, ptr %17, align 4, !tbaa !243
  br label %18

18:                                               ; preds = %12, %2
  %19 = load ptr, ptr %5, align 8, !tbaa !51
  %20 = getelementptr inbounds nuw %struct.AVFrame, ptr %19, i32 0, i32 24
  %21 = load i32, ptr %20, align 8, !tbaa !245
  %22 = icmp eq i32 %21, 2
  br i1 %22, label %23, label %29

23:                                               ; preds = %18
  %24 = load ptr, ptr %4, align 8, !tbaa !4
  %25 = getelementptr inbounds nuw %struct.AVCodecContext, ptr %24, i32 0, i32 26
  %26 = load i32, ptr %25, align 4, !tbaa !246
  %27 = load ptr, ptr %5, align 8, !tbaa !51
  %28 = getelementptr inbounds nuw %struct.AVFrame, ptr %27, i32 0, i32 24
  store i32 %26, ptr %28, align 8, !tbaa !245
  br label %29

29:                                               ; preds = %23, %18
  %30 = load ptr, ptr %5, align 8, !tbaa !51
  %31 = getelementptr inbounds nuw %struct.AVFrame, ptr %30, i32 0, i32 25
  %32 = load i32, ptr %31, align 4, !tbaa !247
  %33 = icmp eq i32 %32, 2
  br i1 %33, label %34, label %40

34:                                               ; preds = %29
  %35 = load ptr, ptr %4, align 8, !tbaa !4
  %36 = getelementptr inbounds nuw %struct.AVCodecContext, ptr %35, i32 0, i32 27
  %37 = load i32, ptr %36, align 8, !tbaa !248
  %38 = load ptr, ptr %5, align 8, !tbaa !51
  %39 = getelementptr inbounds nuw %struct.AVFrame, ptr %38, i32 0, i32 25
  store i32 %37, ptr %39, align 4, !tbaa !247
  br label %40

40:                                               ; preds = %34, %29
  %41 = load ptr, ptr %5, align 8, !tbaa !51
  %42 = getelementptr inbounds nuw %struct.AVFrame, ptr %41, i32 0, i32 22
  %43 = load i32, ptr %42, align 8, !tbaa !249
  %44 = icmp eq i32 %43, 0
  br i1 %44, label %45, label %51

45:                                               ; preds = %40
  %46 = load ptr, ptr %4, align 8, !tbaa !4
  %47 = getelementptr inbounds nuw %struct.AVCodecContext, ptr %46, i32 0, i32 28
  %48 = load i32, ptr %47, align 4, !tbaa !250
  %49 = load ptr, ptr %5, align 8, !tbaa !51
  %50 = getelementptr inbounds nuw %struct.AVFrame, ptr %49, i32 0, i32 22
  store i32 %48, ptr %50, align 8, !tbaa !249
  br label %51

51:                                               ; preds = %45, %40
  %52 = load ptr, ptr %5, align 8, !tbaa !51
  %53 = getelementptr inbounds nuw %struct.AVFrame, ptr %52, i32 0, i32 26
  %54 = load i32, ptr %53, align 8, !tbaa !251
  %55 = icmp eq i32 %54, 0
  br i1 %55, label %56, label %62

56:                                               ; preds = %51
  %57 = load ptr, ptr %4, align 8, !tbaa !4
  %58 = getelementptr inbounds nuw %struct.AVCodecContext, ptr %57, i32 0, i32 29
  %59 = load i32, ptr %58, align 8, !tbaa !252
  %60 = load ptr, ptr %5, align 8, !tbaa !51
  %61 = getelementptr inbounds nuw %struct.AVFrame, ptr %60, i32 0, i32 26
  store i32 %59, ptr %61, align 8, !tbaa !251
  br label %62

62:                                               ; preds = %56, %51
  %63 = load ptr, ptr %4, align 8, !tbaa !4
  %64 = getelementptr inbounds nuw %struct.AVCodecContext, ptr %63, i32 0, i32 2
  %65 = load i32, ptr %64, align 4, !tbaa !98
  %66 = icmp eq i32 %65, 0
  br i1 %66, label %67, label %90

67:                                               ; preds = %62
  %68 = load ptr, ptr %5, align 8, !tbaa !51
  %69 = getelementptr inbounds nuw %struct.AVFrame, ptr %68, i32 0, i32 8
  %70 = getelementptr inbounds nuw %struct.AVRational, ptr %69, i32 0, i32 0
  %71 = load i32, ptr %70, align 4, !tbaa !240
  %72 = icmp ne i32 %71, 0
  br i1 %72, label %78, label %73

73:                                               ; preds = %67
  %74 = load ptr, ptr %5, align 8, !tbaa !51
  %75 = getelementptr inbounds nuw %struct.AVFrame, ptr %74, i32 0, i32 8
  %76 = load ptr, ptr %4, align 8, !tbaa !4
  %77 = getelementptr inbounds nuw %struct.AVCodecContext, ptr %76, i32 0, i32 22
  call void @llvm.memcpy.p0.p0.i64(ptr align 4 %75, ptr align 8 %77, i64 8, i1 false), !tbaa.struct !242
  br label %78

78:                                               ; preds = %73, %67
  %79 = load ptr, ptr %5, align 8, !tbaa !51
  %80 = getelementptr inbounds nuw %struct.AVFrame, ptr %79, i32 0, i32 6
  %81 = load i32, ptr %80, align 4, !tbaa !84
  %82 = icmp eq i32 %81, -1
  br i1 %82, label %83, label %89

83:                                               ; preds = %78
  %84 = load ptr, ptr %4, align 8, !tbaa !4
  %85 = getelementptr inbounds nuw %struct.AVCodecContext, ptr %84, i32 0, i32 23
  %86 = load i32, ptr %85, align 8, !tbaa !253
  %87 = load ptr, ptr %5, align 8, !tbaa !51
  %88 = getelementptr inbounds nuw %struct.AVFrame, ptr %87, i32 0, i32 6
  store i32 %86, ptr %88, align 4, !tbaa !84
  br label %89

89:                                               ; preds = %83, %78
  br label %138

90:                                               ; preds = %62
  %91 = load ptr, ptr %4, align 8, !tbaa !4
  %92 = getelementptr inbounds nuw %struct.AVCodecContext, ptr %91, i32 0, i32 3
  %93 = load ptr, ptr %92, align 8, !tbaa !50
  %94 = getelementptr inbounds nuw %struct.AVCodec, ptr %93, i32 0, i32 2
  %95 = load i32, ptr %94, align 8, !tbaa !64
  %96 = icmp eq i32 %95, 1
  br i1 %96, label %97, label %137

97:                                               ; preds = %90
  %98 = load ptr, ptr %5, align 8, !tbaa !51
  %99 = getelementptr inbounds nuw %struct.AVFrame, ptr %98, i32 0, i32 6
  %100 = load i32, ptr %99, align 4, !tbaa !84
  %101 = icmp eq i32 %100, -1
  br i1 %101, label %102, label %108

102:                                              ; preds = %97
  %103 = load ptr, ptr %4, align 8, !tbaa !4
  %104 = getelementptr inbounds nuw %struct.AVCodecContext, ptr %103, i32 0, i32 70
  %105 = load i32, ptr %104, align 4, !tbaa !254
  %106 = load ptr, ptr %5, align 8, !tbaa !51
  %107 = getelementptr inbounds nuw %struct.AVFrame, ptr %106, i32 0, i32 6
  store i32 %105, ptr %107, align 4, !tbaa !84
  br label %108

108:                                              ; preds = %102, %97
  %109 = load ptr, ptr %5, align 8, !tbaa !51
  %110 = getelementptr inbounds nuw %struct.AVFrame, ptr %109, i32 0, i32 37
  %111 = getelementptr inbounds nuw %struct.AVChannelLayout, ptr %110, i32 0, i32 1
  %112 = load i32, ptr %111, align 4, !tbaa !255
  %113 = icmp ne i32 %112, 0
  br i1 %113, label %125, label %114

114:                                              ; preds = %108
  %115 = load ptr, ptr %5, align 8, !tbaa !51
  %116 = getelementptr inbounds nuw %struct.AVFrame, ptr %115, i32 0, i32 37
  %117 = load ptr, ptr %4, align 8, !tbaa !4
  %118 = getelementptr inbounds nuw %struct.AVCodecContext, ptr %117, i32 0, i32 71
  %119 = call i32 @av_channel_layout_copy(ptr noundef %116, ptr noundef %118)
  store i32 %119, ptr %6, align 4, !tbaa !41
  %120 = load i32, ptr %6, align 4, !tbaa !41
  %121 = icmp slt i32 %120, 0
  br i1 %121, label %122, label %124

122:                                              ; preds = %114
  %123 = load i32, ptr %6, align 4, !tbaa !41
  store i32 %123, ptr %3, align 4
  store i32 1, ptr %7, align 4
  br label %139

124:                                              ; preds = %114
  br label %125

125:                                              ; preds = %124, %108
  %126 = load ptr, ptr %5, align 8, !tbaa !51
  %127 = getelementptr inbounds nuw %struct.AVFrame, ptr %126, i32 0, i32 15
  %128 = load i32, ptr %127, align 4, !tbaa !111
  %129 = icmp ne i32 %128, 0
  br i1 %129, label %136, label %130

130:                                              ; preds = %125
  %131 = load ptr, ptr %4, align 8, !tbaa !4
  %132 = getelementptr inbounds nuw %struct.AVCodecContext, ptr %131, i32 0, i32 69
  %133 = load i32, ptr %132, align 8, !tbaa !86
  %134 = load ptr, ptr %5, align 8, !tbaa !51
  %135 = getelementptr inbounds nuw %struct.AVFrame, ptr %134, i32 0, i32 15
  store i32 %133, ptr %135, align 4, !tbaa !111
  br label %136

136:                                              ; preds = %130, %125
  br label %137

137:                                              ; preds = %136, %90
  br label %138

138:                                              ; preds = %137, %89
  store i32 0, ptr %3, align 4
  store i32 1, ptr %7, align 4
  br label %139

139:                                              ; preds = %138, %122
  call void @llvm.lifetime.end.p0(i64 4, ptr %6) #11
  %140 = load i32, ptr %3, align 4
  ret i32 %140
}