; Function Attrs: nounwind uwtable
define internal fastcc range(i32 -2147483648, 1) i32 @fill_frame_props(ptr noundef %0, ptr noundef %1) unnamed_addr #0 {
  %3 = getelementptr inbounds nuw i8, ptr %1, i64 284
  %4 = load i32, ptr %3, align 4, !tbaa !218
  %5 = icmp eq i32 %4, 2
  br i1 %5, label %6, label %9

6:                                                ; preds = %2
  %7 = getelementptr inbounds nuw i8, ptr %0, i64 144
  %8 = load i32, ptr %7, align 8, !tbaa !219
  store i32 %8, ptr %3, align 4, !tbaa !218
  br label %9

9:                                                ; preds = %6, %2
  %10 = getelementptr inbounds nuw i8, ptr %1, i64 288
  %11 = load i32, ptr %10, align 8, !tbaa !220
  %12 = icmp eq i32 %11, 2
  br i1 %12, label %13, label %16

13:                                               ; preds = %9
  %14 = getelementptr inbounds nuw i8, ptr %0, i64 148
  %15 = load i32, ptr %14, align 4, !tbaa !221
  store i32 %15, ptr %10, align 8, !tbaa !220
  br label %16

16:                                               ; preds = %13, %9
  %17 = getelementptr inbounds nuw i8, ptr %1, i64 292
  %18 = load i32, ptr %17, align 4, !tbaa !222
  %19 = icmp eq i32 %18, 2
  br i1 %19, label %20, label %23

20:                                               ; preds = %16
  %21 = getelementptr inbounds nuw i8, ptr %0, i64 152
  %22 = load i32, ptr %21, align 8, !tbaa !223
  store i32 %22, ptr %17, align 4, !tbaa !222
  br label %23

23:                                               ; preds = %20, %16
  %24 = getelementptr inbounds nuw i8, ptr %1, i64 280
  %25 = load i32, ptr %24, align 8, !tbaa !224
  %26 = icmp eq i32 %25, 0
  br i1 %26, label %27, label %30

27:                                               ; preds = %23
  %28 = getelementptr inbounds nuw i8, ptr %0, i64 156
  %29 = load i32, ptr %28, align 4, !tbaa !225
  store i32 %29, ptr %24, align 8, !tbaa !224
  br label %30

30:                                               ; preds = %27, %23
  %31 = getelementptr inbounds nuw i8, ptr %1, i64 296
  %32 = load i32, ptr %31, align 8, !tbaa !226
  %33 = icmp eq i32 %32, 0
  br i1 %33, label %34, label %37

34:                                               ; preds = %30
  %35 = getelementptr inbounds nuw i8, ptr %0, i64 160
  %36 = load i32, ptr %35, align 8, !tbaa !227
  store i32 %36, ptr %31, align 8, !tbaa !226
  br label %37

37:                                               ; preds = %34, %30
  %38 = getelementptr inbounds nuw i8, ptr %0, i64 12
  %39 = load i32, ptr %38, align 4, !tbaa !92
  %40 = icmp eq i32 %39, 0
  br i1 %40, label %41, label %54

41:                                               ; preds = %37
  %42 = getelementptr inbounds nuw i8, ptr %1, i64 124
  %43 = load i32, ptr %42, align 4, !tbaa !216
  %.not36 = icmp eq i32 %43, 0
  br i1 %.not36, label %44, label %47

44:                                               ; preds = %41
  %45 = getelementptr inbounds nuw i8, ptr %0, i64 128
  %46 = load i64, ptr %45, align 8
  store i64 %46, ptr %42, align 4
  br label %47

47:                                               ; preds = %44, %41
  %48 = getelementptr inbounds nuw i8, ptr %1, i64 116
  %49 = load i32, ptr %48, align 4, !tbaa !87
  %50 = icmp eq i32 %49, -1
  br i1 %50, label %51, label %81

51:                                               ; preds = %47
  %52 = getelementptr inbounds nuw i8, ptr %0, i64 136
  %53 = load i32, ptr %52, align 8, !tbaa !228
  store i32 %53, ptr %48, align 4, !tbaa !87
  br label %81

54:                                               ; preds = %37
  %55 = getelementptr inbounds nuw i8, ptr %0, i64 16
  %56 = load ptr, ptr %55, align 8, !tbaa !36
  %57 = getelementptr inbounds nuw i8, ptr %56, i64 16
  %58 = load i32, ptr %57, align 8, !tbaa !65
  %59 = icmp eq i32 %58, 1
  br i1 %59, label %60, label %81

60:                                               ; preds = %54
  %61 = getelementptr inbounds nuw i8, ptr %1, i64 116
  %62 = load i32, ptr %61, align 4, !tbaa !87
  %63 = icmp eq i32 %62, -1
  br i1 %63, label %64, label %67

64:                                               ; preds = %60
  %65 = getelementptr inbounds nuw i8, ptr %0, i64 348
  %66 = load i32, ptr %65, align 4, !tbaa !229
  store i32 %66, ptr %61, align 4, !tbaa !87
  br label %67

67:                                               ; preds = %64, %60
  %68 = getelementptr inbounds nuw i8, ptr %1, i64 388
  %69 = load i32, ptr %68, align 4, !tbaa !230
  %.not = icmp eq i32 %69, 0
  br i1 %.not, label %70, label %75

70:                                               ; preds = %67
  %71 = getelementptr inbounds nuw i8, ptr %1, i64 384
  %72 = getelementptr inbounds nuw i8, ptr %0, i64 352
  %73 = tail call i32 @av_channel_layout_copy(ptr noundef nonnull %71, ptr noundef nonnull %72) #10
  %74 = icmp slt i32 %73, 0
  br i1 %74, label %81, label %75

75:                                               ; preds = %70, %67
  %76 = getelementptr inbounds nuw i8, ptr %1, i64 180
  %77 = load i32, ptr %76, align 4, !tbaa !103
  %.not35 = icmp eq i32 %77, 0
  br i1 %.not35, label %78, label %81

78:                                               ; preds = %75
  %79 = getelementptr inbounds nuw i8, ptr %0, i64 344
  %80 = load i32, ptr %79, align 8, !tbaa !45
  store i32 %80, ptr %76, align 4, !tbaa !103
  br label %81

81:                                               ; preds = %51, %47, %75, %78, %54, %70
  %.0 = phi i32 [ %73, %70 ], [ 0, %54 ], [ 0, %78 ], [ 0, %75 ], [ 0, %47 ], [ 0, %51 ]
  ret i32 %.0
}